
Proyecto de Microcontroladores.elf:     file format elf32-avr

Sections:
Idx Name          Size      VMA       LMA       File off  Algn
  0 .data         0000001a  00800100  00000492  00000526  2**0
                  CONTENTS, ALLOC, LOAD, DATA
  1 .text         00000492  00000000  00000000  00000094  2**1
                  CONTENTS, ALLOC, LOAD, READONLY, CODE
  2 .bss          00000001  0080011a  0080011a  00000540  2**0
                  ALLOC
  3 .comment      00000030  00000000  00000000  00000540  2**0
                  CONTENTS, READONLY
  4 .note.gnu.avr.deviceinfo 00000040  00000000  00000000  00000570  2**2
                  CONTENTS, READONLY
  5 .debug_aranges 00000080  00000000  00000000  000005b0  2**0
                  CONTENTS, READONLY, DEBUGGING
  6 .debug_info   00000edd  00000000  00000000  00000630  2**0
                  CONTENTS, READONLY, DEBUGGING
  7 .debug_abbrev 0000089b  00000000  00000000  0000150d  2**0
                  CONTENTS, READONLY, DEBUGGING
  8 .debug_line   000006bf  00000000  00000000  00001da8  2**0
                  CONTENTS, READONLY, DEBUGGING
  9 .debug_frame  00000134  00000000  00000000  00002468  2**2
                  CONTENTS, READONLY, DEBUGGING
 10 .debug_str    000004e4  00000000  00000000  0000259c  2**0
                  CONTENTS, READONLY, DEBUGGING
 11 .debug_loc    000008e5  00000000  00000000  00002a80  2**0
                  CONTENTS, READONLY, DEBUGGING
 12 .debug_ranges 00000060  00000000  00000000  00003365  2**0
                  CONTENTS, READONLY, DEBUGGING

Disassembly of section .text:

00000000 <__vectors>:
   0:	0c 94 3b 00 	jmp	0x76	; 0x76 <__ctors_end>
   4:	0c 94 58 00 	jmp	0xb0	; 0xb0 <__bad_interrupt>
   8:	0c 94 58 00 	jmp	0xb0	; 0xb0 <__bad_interrupt>
   c:	0c 94 58 00 	jmp	0xb0	; 0xb0 <__bad_interrupt>
  10:	0c 94 58 00 	jmp	0xb0	; 0xb0 <__bad_interrupt>
  14:	0c 94 f7 01 	jmp	0x3ee	; 0x3ee <__vector_5>
  18:	0c 94 58 00 	jmp	0xb0	; 0xb0 <__bad_interrupt>
  1c:	0c 94 58 00 	jmp	0xb0	; 0xb0 <__bad_interrupt>
  20:	0c 94 58 00 	jmp	0xb0	; 0xb0 <__bad_interrupt>
  24:	0c 94 58 00 	jmp	0xb0	; 0xb0 <__bad_interrupt>
  28:	0c 94 58 00 	jmp	0xb0	; 0xb0 <__bad_interrupt>
  2c:	0c 94 58 00 	jmp	0xb0	; 0xb0 <__bad_interrupt>
  30:	0c 94 58 00 	jmp	0xb0	; 0xb0 <__bad_interrupt>
  34:	0c 94 58 00 	jmp	0xb0	; 0xb0 <__bad_interrupt>
  38:	0c 94 58 00 	jmp	0xb0	; 0xb0 <__bad_interrupt>
  3c:	0c 94 58 00 	jmp	0xb0	; 0xb0 <__bad_interrupt>
  40:	0c 94 58 00 	jmp	0xb0	; 0xb0 <__bad_interrupt>
  44:	0c 94 58 00 	jmp	0xb0	; 0xb0 <__bad_interrupt>
  48:	0c 94 58 00 	jmp	0xb0	; 0xb0 <__bad_interrupt>
  4c:	0c 94 58 00 	jmp	0xb0	; 0xb0 <__bad_interrupt>
  50:	0c 94 58 00 	jmp	0xb0	; 0xb0 <__bad_interrupt>
  54:	0c 94 58 00 	jmp	0xb0	; 0xb0 <__bad_interrupt>
  58:	0c 94 58 00 	jmp	0xb0	; 0xb0 <__bad_interrupt>
  5c:	0c 94 58 00 	jmp	0xb0	; 0xb0 <__bad_interrupt>
  60:	0c 94 58 00 	jmp	0xb0	; 0xb0 <__bad_interrupt>
  64:	0c 94 58 00 	jmp	0xb0	; 0xb0 <__bad_interrupt>
  68:	5a 01       	movw	r10, r20
  6a:	6a 01       	movw	r12, r20
  6c:	7a 01       	movw	r14, r20
  6e:	8d 01       	movw	r16, r26
  70:	9d 01       	movw	r18, r26
  72:	b0 01       	movw	r22, r0
  74:	c3 01       	movw	r24, r6

00000076 <__ctors_end>:
  76:	11 24       	eor	r1, r1
  78:	1f be       	out	0x3f, r1	; 63
  7a:	cf ef       	ldi	r28, 0xFF	; 255
  7c:	d8 e0       	ldi	r29, 0x08	; 8
  7e:	de bf       	out	0x3e, r29	; 62
  80:	cd bf       	out	0x3d, r28	; 61

00000082 <__do_copy_data>:
  82:	11 e0       	ldi	r17, 0x01	; 1
  84:	a0 e0       	ldi	r26, 0x00	; 0
  86:	b1 e0       	ldi	r27, 0x01	; 1
  88:	e2 e9       	ldi	r30, 0x92	; 146
  8a:	f4 e0       	ldi	r31, 0x04	; 4
  8c:	02 c0       	rjmp	.+4      	; 0x92 <__do_copy_data+0x10>
  8e:	05 90       	lpm	r0, Z+
  90:	0d 92       	st	X+, r0
  92:	aa 31       	cpi	r26, 0x1A	; 26
  94:	b1 07       	cpc	r27, r17
  96:	d9 f7       	brne	.-10     	; 0x8e <__do_copy_data+0xc>

00000098 <__do_clear_bss>:
  98:	21 e0       	ldi	r18, 0x01	; 1
  9a:	aa e1       	ldi	r26, 0x1A	; 26
  9c:	b1 e0       	ldi	r27, 0x01	; 1
  9e:	01 c0       	rjmp	.+2      	; 0xa2 <.do_clear_bss_start>

000000a0 <.do_clear_bss_loop>:
  a0:	1d 92       	st	X+, r1

000000a2 <.do_clear_bss_start>:
  a2:	ab 31       	cpi	r26, 0x1B	; 27
  a4:	b2 07       	cpc	r27, r18
  a6:	e1 f7       	brne	.-8      	; 0xa0 <.do_clear_bss_loop>
  a8:	0e 94 d9 01 	call	0x3b2	; 0x3b2 <main>
  ac:	0c 94 47 02 	jmp	0x48e	; 0x48e <_exit>

000000b0 <__bad_interrupt>:
  b0:	0c 94 00 00 	jmp	0	; 0x0 <__vectors>

000000b4 <lcd_send_command>:
	_delay_ms(1);
	lcd_send_command(0x80);
}
void lcd_send_command(uint8_t command)
{
	DATA_BUS |= (command>>2)&0b00111100;
  b4:	28 b1       	in	r18, 0x08	; 8
  b6:	98 2f       	mov	r25, r24
  b8:	96 95       	lsr	r25
  ba:	96 95       	lsr	r25
  bc:	39 2f       	mov	r19, r25
  be:	3c 73       	andi	r19, 0x3C	; 60
  c0:	23 2b       	or	r18, r19
  c2:	28 b9       	out	0x08, r18	; 8
	DATA_BUS &= (command>>2)|0b11000011;
  c4:	28 b1       	in	r18, 0x08	; 8
  c6:	93 6c       	ori	r25, 0xC3	; 195
  c8:	92 23       	and	r25, r18
  ca:	98 b9       	out	0x08, r25	; 8
	CTL_BUS &= ~(1<<LCD_RS);
  cc:	98 b1       	in	r25, 0x08	; 8
  ce:	9e 7f       	andi	r25, 0xFE	; 254
  d0:	98 b9       	out	0x08, r25	; 8
	CTL_BUS |= (1<<LCD_EN);
  d2:	98 b1       	in	r25, 0x08	; 8
  d4:	92 60       	ori	r25, 0x02	; 2
  d6:	98 b9       	out	0x08, r25	; 8
	#else
		//round up by default
		__ticks_dc = (uint32_t)(ceil(fabs(__tmp)));
	#endif

	__builtin_avr_delay_cycles(__ticks_dc);
  d8:	ef e9       	ldi	r30, 0x9F	; 159
  da:	ff e0       	ldi	r31, 0x0F	; 15
  dc:	31 97       	sbiw	r30, 0x01	; 1
  de:	f1 f7       	brne	.-4      	; 0xdc <lcd_send_command+0x28>
  e0:	00 c0       	rjmp	.+0      	; 0xe2 <lcd_send_command+0x2e>
  e2:	00 00       	nop
	_delay_ms(1);
	CTL_BUS &=~ (1<<LCD_EN);
  e4:	98 b1       	in	r25, 0x08	; 8
  e6:	9d 7f       	andi	r25, 0xFD	; 253
  e8:	98 b9       	out	0x08, r25	; 8
  ea:	ef e9       	ldi	r30, 0x9F	; 159
  ec:	ff e0       	ldi	r31, 0x0F	; 15
  ee:	31 97       	sbiw	r30, 0x01	; 1
  f0:	f1 f7       	brne	.-4      	; 0xee <lcd_send_command+0x3a>
  f2:	00 c0       	rjmp	.+0      	; 0xf4 <lcd_send_command+0x40>
  f4:	00 00       	nop
	_delay_ms(1);
	DATA_BUS |= (command<<2)&0b00111100;
  f6:	28 b1       	in	r18, 0x08	; 8
  f8:	90 e0       	ldi	r25, 0x00	; 0
  fa:	88 0f       	add	r24, r24
  fc:	99 1f       	adc	r25, r25
  fe:	88 0f       	add	r24, r24
 100:	99 1f       	adc	r25, r25
 102:	98 2f       	mov	r25, r24
 104:	9c 73       	andi	r25, 0x3C	; 60
 106:	92 2b       	or	r25, r18
 108:	98 b9       	out	0x08, r25	; 8
	DATA_BUS &= (command<<2)|0b11000011;
 10a:	98 b1       	in	r25, 0x08	; 8
 10c:	83 6c       	ori	r24, 0xC3	; 195
 10e:	89 23       	and	r24, r25
 110:	88 b9       	out	0x08, r24	; 8
	CTL_BUS |= (1<<LCD_EN);
 112:	88 b1       	in	r24, 0x08	; 8
 114:	82 60       	ori	r24, 0x02	; 2
 116:	88 b9       	out	0x08, r24	; 8
 118:	8f e9       	ldi	r24, 0x9F	; 159
 11a:	9f e0       	ldi	r25, 0x0F	; 15
 11c:	01 97       	sbiw	r24, 0x01	; 1
 11e:	f1 f7       	brne	.-4      	; 0x11c <lcd_send_command+0x68>
 120:	00 c0       	rjmp	.+0      	; 0x122 <lcd_send_command+0x6e>
 122:	00 00       	nop
	_delay_ms(1);
	CTL_BUS &= ~(1<<LCD_EN);
 124:	88 b1       	in	r24, 0x08	; 8
 126:	8d 7f       	andi	r24, 0xFD	; 253
 128:	88 b9       	out	0x08, r24	; 8
 12a:	ef e9       	ldi	r30, 0x9F	; 159
 12c:	ff e0       	ldi	r31, 0x0F	; 15
 12e:	31 97       	sbiw	r30, 0x01	; 1
 130:	f1 f7       	brne	.-4      	; 0x12e <lcd_send_command+0x7a>
 132:	00 c0       	rjmp	.+0      	; 0x134 <lcd_send_command+0x80>
 134:	00 00       	nop
 136:	08 95       	ret

00000138 <lcd_init>:
 */ 

#include "LCD.h"

void lcd_init(void){
	DATA_DDR = (1<<LCD_D7)|(1<<LCD_D6)|(1<<LCD_D5)|(1<<LCD_D4);
 138:	8c e3       	ldi	r24, 0x3C	; 60
 13a:	87 b9       	out	0x07, r24	; 7
	CTL_DDR |= (1<<LCD_EN)|(1<<LCD_RS);
 13c:	87 b1       	in	r24, 0x07	; 7
 13e:	83 60       	ori	r24, 0x03	; 3
 140:	87 b9       	out	0x07, r24	; 7
	DATA_BUS = (0<<LCD_D7)|(0<<LCD_D6)|(1<<LCD_D5)|(0<<LCD_D4);
 142:	88 e0       	ldi	r24, 0x08	; 8
 144:	88 b9       	out	0x08, r24	; 8
	CTL_BUS |=  (1<<LCD_EN);
 146:	88 b1       	in	r24, 0x08	; 8
 148:	82 60       	ori	r24, 0x02	; 2
 14a:	88 b9       	out	0x08, r24	; 8
	CTL_BUS &= ~(1<<LCD_RS);
 14c:	88 b1       	in	r24, 0x08	; 8
 14e:	8e 7f       	andi	r24, 0xFE	; 254
 150:	88 b9       	out	0x08, r24	; 8
 152:	8f e9       	ldi	r24, 0x9F	; 159
 154:	9f e0       	ldi	r25, 0x0F	; 15
 156:	01 97       	sbiw	r24, 0x01	; 1
 158:	f1 f7       	brne	.-4      	; 0x156 <lcd_init+0x1e>
 15a:	00 c0       	rjmp	.+0      	; 0x15c <lcd_init+0x24>
 15c:	00 00       	nop
	_delay_ms(1);
	CTL_BUS &= ~(1<<LCD_EN);
 15e:	88 b1       	in	r24, 0x08	; 8
 160:	8d 7f       	andi	r24, 0xFD	; 253
 162:	88 b9       	out	0x08, r24	; 8
 164:	8f e9       	ldi	r24, 0x9F	; 159
 166:	9f e0       	ldi	r25, 0x0F	; 15
 168:	01 97       	sbiw	r24, 0x01	; 1
 16a:	f1 f7       	brne	.-4      	; 0x168 <lcd_init+0x30>
 16c:	00 c0       	rjmp	.+0      	; 0x16e <lcd_init+0x36>
 16e:	00 00       	nop
	_delay_ms(1);
	lcd_send_command(LCD_CMD_4BIT_2ROW_5X7);
 170:	88 e2       	ldi	r24, 0x28	; 40
 172:	0e 94 5a 00 	call	0xb4	; 0xb4 <lcd_send_command>
 176:	8f e9       	ldi	r24, 0x9F	; 159
 178:	9f e0       	ldi	r25, 0x0F	; 15
 17a:	01 97       	sbiw	r24, 0x01	; 1
 17c:	f1 f7       	brne	.-4      	; 0x17a <lcd_init+0x42>
 17e:	00 c0       	rjmp	.+0      	; 0x180 <lcd_init+0x48>
 180:	00 00       	nop
	_delay_ms(1);
	lcd_send_command(LCD_CMD_CLEAR_DISPLAY_CURSOR_BLINK);
 182:	8f e0       	ldi	r24, 0x0F	; 15
 184:	0e 94 5a 00 	call	0xb4	; 0xb4 <lcd_send_command>
 188:	8f e9       	ldi	r24, 0x9F	; 159
 18a:	9f e0       	ldi	r25, 0x0F	; 15
 18c:	01 97       	sbiw	r24, 0x01	; 1
 18e:	f1 f7       	brne	.-4      	; 0x18c <lcd_init+0x54>
 190:	00 c0       	rjmp	.+0      	; 0x192 <lcd_init+0x5a>
 192:	00 00       	nop
	_delay_ms(1);
	lcd_send_command(0x80);
 194:	80 e8       	ldi	r24, 0x80	; 128
 196:	0e 94 5a 00 	call	0xb4	; 0xb4 <lcd_send_command>
 19a:	08 95       	ret

0000019c <lcd_write_character>:
	_delay_ms(1);
}

void lcd_write_character(uint8_t character)
{
	DATA_BUS |= (character>>2)&0b00111100;
 19c:	28 b1       	in	r18, 0x08	; 8
 19e:	98 2f       	mov	r25, r24
 1a0:	96 95       	lsr	r25
 1a2:	96 95       	lsr	r25
 1a4:	39 2f       	mov	r19, r25
 1a6:	3c 73       	andi	r19, 0x3C	; 60
 1a8:	23 2b       	or	r18, r19
 1aa:	28 b9       	out	0x08, r18	; 8
	DATA_BUS &= (character>>2)|0b11000011;
 1ac:	28 b1       	in	r18, 0x08	; 8
 1ae:	93 6c       	ori	r25, 0xC3	; 195
 1b0:	92 23       	and	r25, r18
 1b2:	98 b9       	out	0x08, r25	; 8
	CTL_BUS |= (1<<LCD_RS);
 1b4:	98 b1       	in	r25, 0x08	; 8
 1b6:	91 60       	ori	r25, 0x01	; 1
 1b8:	98 b9       	out	0x08, r25	; 8
	CTL_BUS |= (1<<LCD_EN);
 1ba:	98 b1       	in	r25, 0x08	; 8
 1bc:	92 60       	ori	r25, 0x02	; 2
 1be:	98 b9       	out	0x08, r25	; 8
 1c0:	ef e3       	ldi	r30, 0x3F	; 63
 1c2:	ff e1       	ldi	r31, 0x1F	; 31
 1c4:	31 97       	sbiw	r30, 0x01	; 1
 1c6:	f1 f7       	brne	.-4      	; 0x1c4 <lcd_write_character+0x28>
 1c8:	00 c0       	rjmp	.+0      	; 0x1ca <lcd_write_character+0x2e>
 1ca:	00 00       	nop
	_delay_ms(2);
	CTL_BUS &=~(1<<LCD_EN);
 1cc:	98 b1       	in	r25, 0x08	; 8
 1ce:	9d 7f       	andi	r25, 0xFD	; 253
 1d0:	98 b9       	out	0x08, r25	; 8
 1d2:	ef e3       	ldi	r30, 0x3F	; 63
 1d4:	ff e1       	ldi	r31, 0x1F	; 31
 1d6:	31 97       	sbiw	r30, 0x01	; 1
 1d8:	f1 f7       	brne	.-4      	; 0x1d6 <lcd_write_character+0x3a>
 1da:	00 c0       	rjmp	.+0      	; 0x1dc <lcd_write_character+0x40>
 1dc:	00 00       	nop
	_delay_ms(2);
	DATA_BUS |= (character<<2)&0b00111100;
 1de:	28 b1       	in	r18, 0x08	; 8
 1e0:	90 e0       	ldi	r25, 0x00	; 0
 1e2:	88 0f       	add	r24, r24
 1e4:	99 1f       	adc	r25, r25
 1e6:	88 0f       	add	r24, r24
 1e8:	99 1f       	adc	r25, r25
 1ea:	98 2f       	mov	r25, r24
 1ec:	9c 73       	andi	r25, 0x3C	; 60
 1ee:	92 2b       	or	r25, r18
 1f0:	98 b9       	out	0x08, r25	; 8
	DATA_BUS &= (character<<2)|0b11000011;
 1f2:	98 b1       	in	r25, 0x08	; 8
 1f4:	83 6c       	ori	r24, 0xC3	; 195
 1f6:	89 23       	and	r24, r25
 1f8:	88 b9       	out	0x08, r24	; 8
	CTL_BUS |= (1<<LCD_EN);
 1fa:	88 b1       	in	r24, 0x08	; 8
 1fc:	82 60       	ori	r24, 0x02	; 2
 1fe:	88 b9       	out	0x08, r24	; 8
 200:	8f e3       	ldi	r24, 0x3F	; 63
 202:	9f e1       	ldi	r25, 0x1F	; 31
 204:	01 97       	sbiw	r24, 0x01	; 1
 206:	f1 f7       	brne	.-4      	; 0x204 <lcd_write_character+0x68>
 208:	00 c0       	rjmp	.+0      	; 0x20a <lcd_write_character+0x6e>
 20a:	00 00       	nop
	_delay_ms(2);
	CTL_BUS &= ~(1<<LCD_EN);
 20c:	88 b1       	in	r24, 0x08	; 8
 20e:	8d 7f       	andi	r24, 0xFD	; 253
 210:	88 b9       	out	0x08, r24	; 8
 212:	ef e3       	ldi	r30, 0x3F	; 63
 214:	ff e1       	ldi	r31, 0x1F	; 31
 216:	31 97       	sbiw	r30, 0x01	; 1
 218:	f1 f7       	brne	.-4      	; 0x216 <lcd_write_character+0x7a>
 21a:	00 c0       	rjmp	.+0      	; 0x21c <lcd_write_character+0x80>
 21c:	00 00       	nop
 21e:	08 95       	ret

00000220 <lcd_write_word>:
	_delay_ms(2);
}
void lcd_write_word(uint8_t word[20])
{
 220:	0f 93       	push	r16
 222:	1f 93       	push	r17
 224:	cf 93       	push	r28
 226:	df 93       	push	r29
 228:	8c 01       	movw	r16, r24
	int i =0;
 22a:	c0 e0       	ldi	r28, 0x00	; 0
 22c:	d0 e0       	ldi	r29, 0x00	; 0
	while(word[i]!='\0')
 22e:	03 c0       	rjmp	.+6      	; 0x236 <lcd_write_word+0x16>
	{
		lcd_write_character(word[i]);
 230:	0e 94 ce 00 	call	0x19c	; 0x19c <lcd_write_character>
		i++;
 234:	21 96       	adiw	r28, 0x01	; 1
	_delay_ms(2);
}
void lcd_write_word(uint8_t word[20])
{
	int i =0;
	while(word[i]!='\0')
 236:	f8 01       	movw	r30, r16
 238:	ec 0f       	add	r30, r28
 23a:	fd 1f       	adc	r31, r29
 23c:	80 81       	ld	r24, Z
 23e:	81 11       	cpse	r24, r1
 240:	f7 cf       	rjmp	.-18     	; 0x230 <lcd_write_word+0x10>
	{
		lcd_write_character(word[i]);
		i++;
	}
}
 242:	df 91       	pop	r29
 244:	cf 91       	pop	r28
 246:	1f 91       	pop	r17
 248:	0f 91       	pop	r16
 24a:	08 95       	ret

0000024c <lcd_clear>:

void lcd_clear(void){
	lcd_send_command(LCD_CMD_CLEAR_DISPLAY);
 24c:	81 e0       	ldi	r24, 0x01	; 1
 24e:	0e 94 5a 00 	call	0xb4	; 0xb4 <lcd_send_command>
 252:	8f e1       	ldi	r24, 0x1F	; 31
 254:	9e e4       	ldi	r25, 0x4E	; 78
 256:	01 97       	sbiw	r24, 0x01	; 1
 258:	f1 f7       	brne	.-4      	; 0x256 <lcd_clear+0xa>
 25a:	00 c0       	rjmp	.+0      	; 0x25c <lcd_clear+0x10>
 25c:	00 00       	nop
 25e:	08 95       	ret

00000260 <lcd_goto_xy>:
	_delay_ms(5);
}
void lcd_goto_xy(uint8_t line, uint8_t pos){
	lcd_send_command((0x80|(line<<6))+pos);
 260:	20 e4       	ldi	r18, 0x40	; 64
 262:	82 9f       	mul	r24, r18
 264:	c0 01       	movw	r24, r0
 266:	11 24       	eor	r1, r1
 268:	80 68       	ori	r24, 0x80	; 128
 26a:	86 0f       	add	r24, r22
 26c:	0e 94 5a 00 	call	0xb4	; 0xb4 <lcd_send_command>
 270:	8f ef       	ldi	r24, 0xFF	; 255
 272:	90 e7       	ldi	r25, 0x70	; 112
 274:	22 e0       	ldi	r18, 0x02	; 2
 276:	81 50       	subi	r24, 0x01	; 1
 278:	90 40       	sbci	r25, 0x00	; 0
 27a:	20 40       	sbci	r18, 0x00	; 0
 27c:	e1 f7       	brne	.-8      	; 0x276 <lcd_goto_xy+0x16>
 27e:	00 c0       	rjmp	.+0      	; 0x280 <lcd_goto_xy+0x20>
 280:	00 00       	nop
 282:	08 95       	ret

00000284 <configurar_pin_change_interrupt>:
#include "LCD.h"

uint8_t estado_anterior;

void configurar_pin_change_interrupt() {
	PCICR |= (1 << PCIE2);  // Habilitar interrupción para PCINT[23:16] (Puerto D)
 284:	e8 e6       	ldi	r30, 0x68	; 104
 286:	f0 e0       	ldi	r31, 0x00	; 0
 288:	80 81       	ld	r24, Z
 28a:	84 60       	ori	r24, 0x04	; 4
 28c:	80 83       	st	Z, r24
	PCMSK2 |= 0xFF;         // Habilitar interrupciones por cambio de pin en todos los pines PD0-PD7
 28e:	ed e6       	ldi	r30, 0x6D	; 109
 290:	f0 e0       	ldi	r31, 0x00	; 0
 292:	80 81       	ld	r24, Z
 294:	8f ef       	ldi	r24, 0xFF	; 255
 296:	80 83       	st	Z, r24
	estado_anterior = PIND;  // Guardar el estado inicial de los pines
 298:	89 b1       	in	r24, 0x09	; 9
 29a:	80 93 1a 01 	sts	0x011A, r24	; 0x80011a <__data_end>
 29e:	08 95       	ret

000002a0 <prenderLed>:
}

void prenderLed(uint8_t pin){
	
	switch(pin){
 2a0:	90 e0       	ldi	r25, 0x00	; 0
 2a2:	87 30       	cpi	r24, 0x07	; 7
 2a4:	91 05       	cpc	r25, r1
 2a6:	08 f0       	brcs	.+2      	; 0x2aa <prenderLed+0xa>
 2a8:	83 c0       	rjmp	.+262    	; 0x3b0 <prenderLed+0x110>
 2aa:	fc 01       	movw	r30, r24
 2ac:	ec 5c       	subi	r30, 0xCC	; 204
 2ae:	ff 4f       	sbci	r31, 0xFF	; 255
 2b0:	0c 94 41 02 	jmp	0x482	; 0x482 <__tablejump2__>
		
		case 0:	PORTB |= (1 << PORTB2);  // Encender PB2
 2b4:	85 b1       	in	r24, 0x05	; 5
 2b6:	84 60       	ori	r24, 0x04	; 4
 2b8:	85 b9       	out	0x05, r24	; 5
 2ba:	2f ef       	ldi	r18, 0xFF	; 255
 2bc:	83 ed       	ldi	r24, 0xD3	; 211
 2be:	90 e3       	ldi	r25, 0x30	; 48
 2c0:	21 50       	subi	r18, 0x01	; 1
 2c2:	80 40       	sbci	r24, 0x00	; 0
 2c4:	90 40       	sbci	r25, 0x00	; 0
 2c6:	e1 f7       	brne	.-8      	; 0x2c0 <prenderLed+0x20>
 2c8:	00 c0       	rjmp	.+0      	; 0x2ca <prenderLed+0x2a>
 2ca:	00 00       	nop
		_delay_ms(1000);
		PORTB &= ~(1 << PORTB2);  // Apagar PB2
 2cc:	85 b1       	in	r24, 0x05	; 5
 2ce:	8b 7f       	andi	r24, 0xFB	; 251
 2d0:	85 b9       	out	0x05, r24	; 5
		break;
 2d2:	08 95       	ret
		case 1:	PORTB |= (1 << PORTB1);  // Encender PB1
 2d4:	85 b1       	in	r24, 0x05	; 5
 2d6:	82 60       	ori	r24, 0x02	; 2
 2d8:	85 b9       	out	0x05, r24	; 5
 2da:	2f ef       	ldi	r18, 0xFF	; 255
 2dc:	83 ed       	ldi	r24, 0xD3	; 211
 2de:	90 e3       	ldi	r25, 0x30	; 48
 2e0:	21 50       	subi	r18, 0x01	; 1
 2e2:	80 40       	sbci	r24, 0x00	; 0
 2e4:	90 40       	sbci	r25, 0x00	; 0
 2e6:	e1 f7       	brne	.-8      	; 0x2e0 <prenderLed+0x40>
 2e8:	00 c0       	rjmp	.+0      	; 0x2ea <prenderLed+0x4a>
 2ea:	00 00       	nop
		_delay_ms(1000);
		PORTB &= ~(1 << PORTB1);  // Apagar PB1
 2ec:	85 b1       	in	r24, 0x05	; 5
 2ee:	8d 7f       	andi	r24, 0xFD	; 253
 2f0:	85 b9       	out	0x05, r24	; 5
		break;
 2f2:	08 95       	ret
		case 2:	PORTB |= (1 << PORTB2) | (1 << PORTB1);  // Encender PB2 y PB1
 2f4:	85 b1       	in	r24, 0x05	; 5
 2f6:	86 60       	ori	r24, 0x06	; 6
 2f8:	85 b9       	out	0x05, r24	; 5
 2fa:	2f ef       	ldi	r18, 0xFF	; 255
 2fc:	83 ed       	ldi	r24, 0xD3	; 211
 2fe:	90 e3       	ldi	r25, 0x30	; 48
 300:	21 50       	subi	r18, 0x01	; 1
 302:	80 40       	sbci	r24, 0x00	; 0
 304:	90 40       	sbci	r25, 0x00	; 0
 306:	e1 f7       	brne	.-8      	; 0x300 <prenderLed+0x60>
 308:	00 c0       	rjmp	.+0      	; 0x30a <prenderLed+0x6a>
 30a:	00 00       	nop
		_delay_ms(1000);
		PORTB &= ~(1 << PORTB2);  // Apagar PB2
 30c:	85 b1       	in	r24, 0x05	; 5
 30e:	8b 7f       	andi	r24, 0xFB	; 251
 310:	85 b9       	out	0x05, r24	; 5
		PORTB &= ~(1 << PORTB1);  // Apagar PB1
 312:	85 b1       	in	r24, 0x05	; 5
 314:	8d 7f       	andi	r24, 0xFD	; 253
 316:	85 b9       	out	0x05, r24	; 5
		break;
 318:	08 95       	ret
		case 3:	PORTB |= (1 << PORTB0);  // Encender PB0
 31a:	85 b1       	in	r24, 0x05	; 5
 31c:	81 60       	ori	r24, 0x01	; 1
 31e:	85 b9       	out	0x05, r24	; 5
 320:	2f ef       	ldi	r18, 0xFF	; 255
 322:	83 ed       	ldi	r24, 0xD3	; 211
 324:	90 e3       	ldi	r25, 0x30	; 48
 326:	21 50       	subi	r18, 0x01	; 1
 328:	80 40       	sbci	r24, 0x00	; 0
 32a:	90 40       	sbci	r25, 0x00	; 0
 32c:	e1 f7       	brne	.-8      	; 0x326 <prenderLed+0x86>
 32e:	00 c0       	rjmp	.+0      	; 0x330 <prenderLed+0x90>
 330:	00 00       	nop
		_delay_ms(1000);
		PORTB &= ~(1 << PORTB0);  // Apagar PB0
 332:	85 b1       	in	r24, 0x05	; 5
 334:	8e 7f       	andi	r24, 0xFE	; 254
 336:	85 b9       	out	0x05, r24	; 5
		break;
 338:	08 95       	ret
		case 4:	PORTB |= (1 << PORTB2) | (1 << PORTB0);  // Encender PB2 y PB0
 33a:	85 b1       	in	r24, 0x05	; 5
 33c:	85 60       	ori	r24, 0x05	; 5
 33e:	85 b9       	out	0x05, r24	; 5
 340:	2f ef       	ldi	r18, 0xFF	; 255
 342:	83 ed       	ldi	r24, 0xD3	; 211
 344:	90 e3       	ldi	r25, 0x30	; 48
 346:	21 50       	subi	r18, 0x01	; 1
 348:	80 40       	sbci	r24, 0x00	; 0
 34a:	90 40       	sbci	r25, 0x00	; 0
 34c:	e1 f7       	brne	.-8      	; 0x346 <prenderLed+0xa6>
 34e:	00 c0       	rjmp	.+0      	; 0x350 <prenderLed+0xb0>
 350:	00 00       	nop
		_delay_ms(1000);
		PORTB &= ~(1 << PORTB2);  // Apagar PB2
 352:	85 b1       	in	r24, 0x05	; 5
 354:	8b 7f       	andi	r24, 0xFB	; 251
 356:	85 b9       	out	0x05, r24	; 5
		PORTB &= ~(1 << PORTB0);  // Apagar PB0
 358:	85 b1       	in	r24, 0x05	; 5
 35a:	8e 7f       	andi	r24, 0xFE	; 254
 35c:	85 b9       	out	0x05, r24	; 5
		break;
 35e:	08 95       	ret
		case 5:	PORTB |= (1 << PORTB1) | (1 << PORTB0);  // Encender PB1 y PB0
 360:	85 b1       	in	r24, 0x05	; 5
 362:	83 60       	ori	r24, 0x03	; 3
 364:	85 b9       	out	0x05, r24	; 5
 366:	2f ef       	ldi	r18, 0xFF	; 255
 368:	83 ed       	ldi	r24, 0xD3	; 211
 36a:	90 e3       	ldi	r25, 0x30	; 48
 36c:	21 50       	subi	r18, 0x01	; 1
 36e:	80 40       	sbci	r24, 0x00	; 0
 370:	90 40       	sbci	r25, 0x00	; 0
 372:	e1 f7       	brne	.-8      	; 0x36c <prenderLed+0xcc>
 374:	00 c0       	rjmp	.+0      	; 0x376 <prenderLed+0xd6>
 376:	00 00       	nop
		_delay_ms(1000);
		PORTB &= ~(1 << PORTB1);  // Apagar PB1
 378:	85 b1       	in	r24, 0x05	; 5
 37a:	8d 7f       	andi	r24, 0xFD	; 253
 37c:	85 b9       	out	0x05, r24	; 5
		PORTB &= ~(1 << PORTB0);  // Apagar PB0
 37e:	85 b1       	in	r24, 0x05	; 5
 380:	8e 7f       	andi	r24, 0xFE	; 254
 382:	85 b9       	out	0x05, r24	; 5
		break;
 384:	08 95       	ret
		case 6:	PORTB |= (1 << PORTB2) | (1 << PORTB1) | (1 << PORTB0);  // Encender PB2, PB1 y PB0
 386:	85 b1       	in	r24, 0x05	; 5
 388:	87 60       	ori	r24, 0x07	; 7
 38a:	85 b9       	out	0x05, r24	; 5
 38c:	2f ef       	ldi	r18, 0xFF	; 255
 38e:	83 ed       	ldi	r24, 0xD3	; 211
 390:	90 e3       	ldi	r25, 0x30	; 48
 392:	21 50       	subi	r18, 0x01	; 1
 394:	80 40       	sbci	r24, 0x00	; 0
 396:	90 40       	sbci	r25, 0x00	; 0
 398:	e1 f7       	brne	.-8      	; 0x392 <prenderLed+0xf2>
 39a:	00 c0       	rjmp	.+0      	; 0x39c <prenderLed+0xfc>
 39c:	00 00       	nop
		_delay_ms(1000);
		PORTB &= ~(1 << PORTB2);  // Apagar PB2
 39e:	85 b1       	in	r24, 0x05	; 5
 3a0:	8b 7f       	andi	r24, 0xFB	; 251
 3a2:	85 b9       	out	0x05, r24	; 5
		PORTB &= ~(1 << PORTB1);  // Apagar PB1
 3a4:	85 b1       	in	r24, 0x05	; 5
 3a6:	8d 7f       	andi	r24, 0xFD	; 253
 3a8:	85 b9       	out	0x05, r24	; 5
		PORTB &= ~(1 << PORTB0);  // Apagar PB0
 3aa:	85 b1       	in	r24, 0x05	; 5
 3ac:	8e 7f       	andi	r24, 0xFE	; 254
 3ae:	85 b9       	out	0x05, r24	; 5
 3b0:	08 95       	ret

000003b2 <main>:



int main(void)
{
	DDRB = 0b00001111;    // Configurar PB0-PB3 como salidas
 3b2:	8f e0       	ldi	r24, 0x0F	; 15
 3b4:	84 b9       	out	0x04, r24	; 4
	PORTB = 0b00000000;   // Apagar salidas en PB0-PB3
 3b6:	15 b8       	out	0x05, r1	; 5

	DDRD = 0b00000000;    // Configurar PD0-PD7 como entradas
 3b8:	1a b8       	out	0x0a, r1	; 10
	PORTD = 0xFF;         // Activar pull-ups internos para PD0-PD7
 3ba:	8f ef       	ldi	r24, 0xFF	; 255
 3bc:	8b b9       	out	0x0b, r24	; 11

	sei();                // Habilitar interrupciones globales
 3be:	78 94       	sei
	configurar_pin_change_interrupt();  // Configurar interrupciones por cambio de pin
 3c0:	0e 94 42 01 	call	0x284	; 0x284 <configurar_pin_change_interrupt>

	lcd_init();
 3c4:	0e 94 9c 00 	call	0x138	; 0x138 <lcd_init>
	lcd_clear();
 3c8:	0e 94 26 01 	call	0x24c	; 0x24c <lcd_clear>
	lcd_goto_xy(0, 0);
 3cc:	60 e0       	ldi	r22, 0x00	; 0
 3ce:	80 e0       	ldi	r24, 0x00	; 0
 3d0:	0e 94 30 01 	call	0x260	; 0x260 <lcd_goto_xy>
	lcd_write_word("Simon Says");
 3d4:	80 e0       	ldi	r24, 0x00	; 0
 3d6:	91 e0       	ldi	r25, 0x01	; 1
 3d8:	0e 94 10 01 	call	0x220	; 0x220 <lcd_write_word>
	lcd_goto_xy(1, 0);
 3dc:	60 e0       	ldi	r22, 0x00	; 0
 3de:	81 e0       	ldi	r24, 0x01	; 1
 3e0:	0e 94 30 01 	call	0x260	; 0x260 <lcd_goto_xy>
	lcd_write_word("Press Start..");
 3e4:	8b e0       	ldi	r24, 0x0B	; 11
 3e6:	91 e0       	ldi	r25, 0x01	; 1
 3e8:	0e 94 10 01 	call	0x220	; 0x220 <lcd_write_word>
 3ec:	ff cf       	rjmp	.-2      	; 0x3ec <main+0x3a>

000003ee <__vector_5>:
		// El microcontrolador esperará las interrupciones y responderá a ellas
	}
}

// ISR para "Pin Change Interrupt" del puerto D (PCINT[23:16])
ISR(PCINT2_vect) {
 3ee:	1f 92       	push	r1
 3f0:	0f 92       	push	r0
 3f2:	0f b6       	in	r0, 0x3f	; 63
 3f4:	0f 92       	push	r0
 3f6:	11 24       	eor	r1, r1
 3f8:	1f 93       	push	r17
 3fa:	2f 93       	push	r18
 3fc:	3f 93       	push	r19
 3fe:	4f 93       	push	r20
 400:	5f 93       	push	r21
 402:	6f 93       	push	r22
 404:	7f 93       	push	r23
 406:	8f 93       	push	r24
 408:	9f 93       	push	r25
 40a:	af 93       	push	r26
 40c:	bf 93       	push	r27
 40e:	cf 93       	push	r28
 410:	df 93       	push	r29
 412:	ef 93       	push	r30
 414:	ff 93       	push	r31
	uint8_t estado_actual = PIND;  // Leer el estado actual de los pines PD0-PD7
 416:	19 b1       	in	r17, 0x09	; 9
	uint8_t cambio = estado_anterior ^ estado_actual;  // Detectar qué pines cambiaron
 418:	d0 91 1a 01 	lds	r29, 0x011A	; 0x80011a <__data_end>
 41c:	d1 27       	eor	r29, r17
	estado_anterior = estado_actual;  // Actualizar el estado anterior
 41e:	10 93 1a 01 	sts	0x011A, r17	; 0x80011a <__data_end>

	for (uint8_t i = 0; i < 8; i++) {
 422:	c0 e0       	ldi	r28, 0x00	; 0
 424:	18 c0       	rjmp	.+48     	; 0x456 <__EEPROM_REGION_LENGTH__+0x56>
		if (cambio & (1 << i)) {  // Si el pin PDx ha cambiado de estado
 426:	8d 2f       	mov	r24, r29
 428:	90 e0       	ldi	r25, 0x00	; 0
 42a:	0c 2e       	mov	r0, r28
 42c:	02 c0       	rjmp	.+4      	; 0x432 <__EEPROM_REGION_LENGTH__+0x32>
 42e:	95 95       	asr	r25
 430:	87 95       	ror	r24
 432:	0a 94       	dec	r0
 434:	e2 f7       	brpl	.-8      	; 0x42e <__EEPROM_REGION_LENGTH__+0x2e>
 436:	80 ff       	sbrs	r24, 0
 438:	0d c0       	rjmp	.+26     	; 0x454 <__EEPROM_REGION_LENGTH__+0x54>
			if (!(estado_actual & (1 << i))) {  // Si el pin PDx está en nivel bajo (botón presionado)
 43a:	81 2f       	mov	r24, r17
 43c:	90 e0       	ldi	r25, 0x00	; 0
 43e:	0c 2e       	mov	r0, r28
 440:	02 c0       	rjmp	.+4      	; 0x446 <__EEPROM_REGION_LENGTH__+0x46>
 442:	95 95       	asr	r25
 444:	87 95       	ror	r24
 446:	0a 94       	dec	r0
 448:	e2 f7       	brpl	.-8      	; 0x442 <__EEPROM_REGION_LENGTH__+0x42>
 44a:	80 fd       	sbrc	r24, 0
 44c:	03 c0       	rjmp	.+6      	; 0x454 <__EEPROM_REGION_LENGTH__+0x54>
				prenderLed(i);
 44e:	8c 2f       	mov	r24, r28
 450:	0e 94 50 01 	call	0x2a0	; 0x2a0 <prenderLed>
ISR(PCINT2_vect) {
	uint8_t estado_actual = PIND;  // Leer el estado actual de los pines PD0-PD7
	uint8_t cambio = estado_anterior ^ estado_actual;  // Detectar qué pines cambiaron
	estado_anterior = estado_actual;  // Actualizar el estado anterior

	for (uint8_t i = 0; i < 8; i++) {
 454:	cf 5f       	subi	r28, 0xFF	; 255
 456:	c8 30       	cpi	r28, 0x08	; 8
 458:	30 f3       	brcs	.-52     	; 0x426 <__EEPROM_REGION_LENGTH__+0x26>
			if (!(estado_actual & (1 << i))) {  // Si el pin PDx está en nivel bajo (botón presionado)
				prenderLed(i);
			}
		}
	}
}
 45a:	ff 91       	pop	r31
 45c:	ef 91       	pop	r30
 45e:	df 91       	pop	r29
 460:	cf 91       	pop	r28
 462:	bf 91       	pop	r27
 464:	af 91       	pop	r26
 466:	9f 91       	pop	r25
 468:	8f 91       	pop	r24
 46a:	7f 91       	pop	r23
 46c:	6f 91       	pop	r22
 46e:	5f 91       	pop	r21
 470:	4f 91       	pop	r20
 472:	3f 91       	pop	r19
 474:	2f 91       	pop	r18
 476:	1f 91       	pop	r17
 478:	0f 90       	pop	r0
 47a:	0f be       	out	0x3f, r0	; 63
 47c:	0f 90       	pop	r0
 47e:	1f 90       	pop	r1
 480:	18 95       	reti

00000482 <__tablejump2__>:
 482:	ee 0f       	add	r30, r30
 484:	ff 1f       	adc	r31, r31
 486:	05 90       	lpm	r0, Z+
 488:	f4 91       	lpm	r31, Z
 48a:	e0 2d       	mov	r30, r0
 48c:	09 94       	ijmp

0000048e <_exit>:
 48e:	f8 94       	cli

00000490 <__stop_program>:
 490:	ff cf       	rjmp	.-2      	; 0x490 <__stop_program>
